target datalayout = "e-m:e-p270:32:32-p271:32:32-p272:64:64-i64:64-i128:128-f80:128-n8:16:32:64-S128"
target triple = "x86_64-pc-linux-gnu"

%struct.quicklist = type { ptr, ptr, i64, i64, i64, [0 x %struct.quicklistBookmark] }
%struct.quicklistBookmark = type { ptr, ptr }
%struct.quicklistNode = type { ptr, ptr, ptr, i64, i32 }
%struct.quicklistIter = type { ptr, ptr, ptr, i64, i32 }

; Function Attrs: nounwind uwtable
define dso_local ptr @quicklistGetIterator(ptr noundef %0, i32 noundef %1) #0 {
  %3 = alloca ptr, align 8
  %4 = alloca i32, align 4
  %5 = alloca ptr, align 8
  store ptr %0, ptr %3, align 8, !tbaa !9
  store i32 %1, ptr %4, align 4, !tbaa !14
  call void @llvm.lifetime.start.p0(i64 8, ptr %5) #10
  %6 = call noalias ptr @zmalloc(i64 noundef 40) #11
  store ptr %6, ptr %5, align 8, !tbaa !42
  %7 = load i32, ptr %4, align 4, !tbaa !14
  %8 = icmp eq i32 %7, 0
  br i1 %8, label %9, label %17

9:                                                ; preds = %2
  %10 = load ptr, ptr %3, align 8, !tbaa !9
  %11 = getelementptr inbounds nuw %struct.quicklist, ptr %10, i32 0, i32 0
  %12 = load ptr, ptr %11, align 8, !tbaa !12
  %13 = load ptr, ptr %5, align 8, !tbaa !42
  %14 = getelementptr inbounds nuw %struct.quicklistIter, ptr %13, i32 0, i32 1
  store ptr %12, ptr %14, align 8, !tbaa !53
  %15 = load ptr, ptr %5, align 8, !tbaa !42
  %16 = getelementptr inbounds nuw %struct.quicklistIter, ptr %15, i32 0, i32 3
  store i64 0, ptr %16, align 8, !tbaa !54
  br label %29

17:                                               ; preds = %2
  %18 = load i32, ptr %4, align 4, !tbaa !14
  %19 = icmp eq i32 %18, 1
  br i1 %19, label %20, label %28

20:                                               ; preds = %17
  %21 = load ptr, ptr %3, align 8, !tbaa !9
  %22 = getelementptr inbounds nuw %struct.quicklist, ptr %21, i32 0, i32 1
  %23 = load ptr, ptr %22, align 8, !tbaa !12
  %24 = load ptr, ptr %5, align 8, !tbaa !42
  %25 = getelementptr inbounds nuw %struct.quicklistIter, ptr %24, i32 0, i32 1
  store ptr %23, ptr %25, align 8, !tbaa !53
  %26 = load ptr, ptr %5, align 8, !tbaa !42
  %27 = getelementptr inbounds nuw %struct.quicklistIter, ptr %26, i32 0, i32 3
  store i64 -1, ptr %27, align 8, !tbaa !54
  br label %28

28:                                               ; preds = %20, %17
  br label %29

29:                                               ; preds = %28, %9
  %30 = load i32, ptr %4, align 4, !tbaa !14
  %31 = load ptr, ptr %5, align 8, !tbaa !42
  %32 = getelementptr inbounds nuw %struct.quicklistIter, ptr %31, i32 0, i32 4
  store i32 %30, ptr %32, align 8, !tbaa !52
  %33 = load ptr, ptr %3, align 8, !tbaa !9
  %34 = load ptr, ptr %5, align 8, !tbaa !42
  %35 = getelementptr inbounds nuw %struct.quicklistIter, ptr %34, i32 0, i32 0
  store ptr %33, ptr %35, align 8, !tbaa !55
  %36 = load ptr, ptr %5, align 8, !tbaa !42
  %37 = getelementptr inbounds nuw %struct.quicklistIter, ptr %36, i32 0, i32 2
  store ptr null, ptr %37, align 8, !tbaa !50
  %38 = load ptr, ptr %5, align 8, !tbaa !42
  call void @llvm.lifetime.end.p0(i64 8, ptr %5) #10
  ret ptr %38
}

; Function Attrs: nounwind uwtable
define dso_local ptr @quicklistGetIteratorAtIdx(ptr noundef %0, i32 noundef %1, i64 noundef %2) #0 {
  %4 = alloca ptr, align 8
  %5 = alloca ptr, align 8
  %6 = alloca i32, align 4
  %7 = alloca i64, align 8
  %8 = alloca ptr, align 8
  %9 = alloca i64, align 8
  %10 = alloca i64, align 8
  %11 = alloca i32, align 4
  %12 = alloca i32, align 4
  %13 = alloca i32, align 4
  %14 = alloca i64, align 8
  %15 = alloca ptr, align 8
  store ptr %0, ptr %5, align 8, !tbaa !9
  store i32 %1, ptr %6, align 4, !tbaa !14
  store i64 %2, ptr %7, align 8, !tbaa !57
  call void @llvm.lifetime.start.p0(i64 8, ptr %8) #10
  call void @llvm.lifetime.start.p0(i64 8, ptr %9) #10
  store i64 0, ptr %9, align 8, !tbaa !57
  call void @llvm.lifetime.start.p0(i64 8, ptr %10) #10
  call void @llvm.lifetime.start.p0(i64 4, ptr %11) #10
  %16 = load i64, ptr %7, align 8, !tbaa !57
  %17 = icmp slt i64 %16, 0
  %18 = select i1 %17, i32 0, i32 1
  store i32 %18, ptr %11, align 4, !tbaa !14
  %19 = load i32, ptr %11, align 4, !tbaa !14
  %20 = icmp ne i32 %19, 0
  br i1 %20, label %21, label %23

21:                                               ; preds = %3
  %22 = load i64, ptr %7, align 8, !tbaa !57
  br label %27

23:                                               ; preds = %3
  %24 = load i64, ptr %7, align 8, !tbaa !57
  %25 = sub nsw i64 0, %24
  %26 = sub nsw i64 %25, 1
  br label %27

27:                                               ; preds = %23, %21
  %28 = phi i64 [ %22, %21 ], [ %26, %23 ]
  store i64 %28, ptr %10, align 8, !tbaa !57
  %29 = load i64, ptr %10, align 8, !tbaa !57
  %30 = load ptr, ptr %5, align 8, !tbaa !9
  %31 = getelementptr inbounds nuw %struct.quicklist, ptr %30, i32 0, i32 2
  %32 = load i64, ptr %31, align 8, !tbaa !5
  %33 = icmp uge i64 %29, %32
  br i1 %33, label %34, label %35

34:                                               ; preds = %27
  store ptr null, ptr %4, align 8
  store i32 1, ptr %12, align 4
  br label %156

35:                                               ; preds = %27
  call void @llvm.lifetime.start.p0(i64 4, ptr %13) #10
  %36 = load i32, ptr %11, align 4, !tbaa !14
  store i32 %36, ptr %13, align 4, !tbaa !14
  call void @llvm.lifetime.start.p0(i64 8, ptr %14) #10
  %37 = load i64, ptr %10, align 8, !tbaa !57
  store i64 %37, ptr %14, align 8, !tbaa !57
  %38 = load i64, ptr %10, align 8, !tbaa !57
  %39 = load ptr, ptr %5, align 8, !tbaa !9
  %40 = getelementptr inbounds nuw %struct.quicklist, ptr %39, i32 0, i32 2
  %41 = load i64, ptr %40, align 8, !tbaa !5
  %42 = sub i64 %41, 1
  %43 = udiv i64 %42, 2
  %44 = icmp ugt i64 %38, %43
  br i1 %44, label %45, label %56

45:                                               ; preds = %35
  %46 = load i32, ptr %11, align 4, !tbaa !14
  %47 = icmp ne i32 %46, 0
  %48 = xor i1 %47, true
  %49 = zext i1 %48 to i32
  store i32 %49, ptr %13, align 4, !tbaa !14
  %50 = load ptr, ptr %5, align 8, !tbaa !9
  %51 = getelementptr inbounds nuw %struct.quicklist, ptr %50, i32 0, i32 2
  %52 = load i64, ptr %51, align 8, !tbaa !5
  %53 = sub i64 %52, 1
  %54 = load i64, ptr %10, align 8, !tbaa !57
  %55 = sub i64 %53, %54
  store i64 %55, ptr %14, align 8, !tbaa !57
  br label %56

56:                                               ; preds = %45, %35
  %57 = load i32, ptr %13, align 4, !tbaa !14
  %58 = icmp ne i32 %57, 0
  br i1 %58, label %59, label %63

59:                                               ; preds = %56
  %60 = load ptr, ptr %5, align 8, !tbaa !9
  %61 = getelementptr inbounds nuw %struct.quicklist, ptr %60, i32 0, i32 0
  %62 = load ptr, ptr %61, align 8, !tbaa !12
  br label %67

63:                                               ; preds = %56
  %64 = load ptr, ptr %5, align 8, !tbaa !9
  %65 = getelementptr inbounds nuw %struct.quicklist, ptr %64, i32 0, i32 1
  %66 = load ptr, ptr %65, align 8, !tbaa !12
  br label %67

67:                                               ; preds = %63, %59
  %68 = phi ptr [ %62, %59 ], [ %66, %63 ]
  store ptr %68, ptr %8, align 8, !tbaa !12
  br label %69

69:                                               ; preds = %109, %67
  %70 = load ptr, ptr %8, align 8, !tbaa !12
  %71 = icmp ne ptr %70, null
  %72 = xor i1 %71, true
  %73 = xor i1 %72, true
  %74 = zext i1 %73 to i32
  %75 = sext i32 %74 to i64
  %76 = call i64 @llvm.expect.i64(i64 %75, i64 1)
  %77 = icmp ne i64 %76, 0
  br i1 %77, label %78, label %110

78:                                               ; preds = %69
  %79 = load i64, ptr %9, align 8, !tbaa !57
  %80 = load ptr, ptr %8, align 8, !tbaa !12
  %81 = getelementptr inbounds nuw %struct.quicklistNode, ptr %80, i32 0, i32 4
  %82 = load i32, ptr %81, align 8
  %83 = and i32 %82, 65535
  %84 = zext i32 %83 to i64
  %85 = add i64 %79, %84
  %86 = load i64, ptr %14, align 8, !tbaa !57
  %87 = icmp ugt i64 %85, %86
  br i1 %87, label %88, label %89

88:                                               ; preds = %78
  br label %110

89:                                               ; preds = %78
  %90 = load ptr, ptr %8, align 8, !tbaa !12
  %91 = getelementptr inbounds nuw %struct.quicklistNode, ptr %90, i32 0, i32 4
  %92 = load i32, ptr %91, align 8
  %93 = and i32 %92, 65535
  %94 = zext i32 %93 to i64
  %95 = load i64, ptr %9, align 8, !tbaa !57
  %96 = add i64 %95, %94
  store i64 %96, ptr %9, align 8, !tbaa !57
  %97 = load i32, ptr %13, align 4, !tbaa !14
  %98 = icmp ne i32 %97, 0
  br i1 %98, label %99, label %103

99:                                               ; preds = %89
  %100 = load ptr, ptr %8, align 8, !tbaa !12
  %101 = getelementptr inbounds nuw %struct.quicklistNode, ptr %100, i32 0, i32 1
  %102 = load ptr, ptr %101, align 8, !tbaa !21
  br label %107

103:                                              ; preds = %89
  %104 = load ptr, ptr %8, align 8, !tbaa !12
  %105 = getelementptr inbounds nuw %struct.quicklistNode, ptr %104, i32 0, i32 0
  %106 = load ptr, ptr %105, align 8, !tbaa !20
  br label %107

107:                                              ; preds = %103, %99
  %108 = phi ptr [ %102, %99 ], [ %106, %103 ]
  store ptr %108, ptr %8, align 8, !tbaa !12
  br label %109

109:                                              ; preds = %107
  br label %69, !llvm.loop !60

110:                                              ; preds = %88, %69
  %111 = load ptr, ptr %8, align 8, !tbaa !12
  %112 = icmp ne ptr %111, null
  br i1 %112, label %114, label %113

113:                                              ; preds = %110
  store ptr null, ptr %4, align 8
  store i32 1, ptr %12, align 4
  br label %155

114:                                              ; preds = %110
  %115 = load i32, ptr %13, align 4, !tbaa !14
  %116 = load i32, ptr %11, align 4, !tbaa !14
  %117 = icmp ne i32 %115, %116
  br i1 %117, label %118, label %130

118:                                              ; preds = %114
  %119 = load ptr, ptr %5, align 8, !tbaa !9
  %120 = getelementptr inbounds nuw %struct.quicklist, ptr %119, i32 0, i32 2
  %121 = load i64, ptr %120, align 8, !tbaa !5
  %122 = load ptr, ptr %8, align 8, !tbaa !12
  %123 = getelementptr inbounds nuw %struct.quicklistNode, ptr %122, i32 0, i32 4
  %124 = load i32, ptr %123, align 8
  %125 = and i32 %124, 65535
  %126 = zext i32 %125 to i64
  %127 = sub i64 %121, %126
  %128 = load i64, ptr %9, align 8, !tbaa !57
  %129 = sub i64 %127, %128
  store i64 %129, ptr %9, align 8, !tbaa !57
  br label %130

130:                                              ; preds = %118, %114
  call void @llvm.lifetime.start.p0(i64 8, ptr %15) #10
  %131 = load ptr, ptr %5, align 8, !tbaa !9
  %132 = load i32, ptr %6, align 4, !tbaa !14
  %133 = call ptr @quicklistGetIterator(ptr noundef %131, i32 noundef %132)
  store ptr %133, ptr %15, align 8, !tbaa !42
  %134 = load ptr, ptr %8, align 8, !tbaa !12
  %135 = load ptr, ptr %15, align 8, !tbaa !42
  %136 = getelementptr inbounds nuw %struct.quicklistIter, ptr %135, i32 0, i32 1
  store ptr %134, ptr %136, align 8, !tbaa !53
  %137 = load i32, ptr %11, align 4, !tbaa !14
  %138 = icmp ne i32 %137, 0
  br i1 %138, label %139, label %145

139:                                              ; preds = %130
  %140 = load i64, ptr %10, align 8, !tbaa !57
  %141 = load i64, ptr %9, align 8, !tbaa !57
  %142 = sub i64 %140, %141
  %143 = load ptr, ptr %15, align 8, !tbaa !42
  %144 = getelementptr inbounds nuw %struct.quicklistIter, ptr %143, i32 0, i32 3
  store i64 %142, ptr %144, align 8, !tbaa !54
  br label %153

145:                                              ; preds = %130
  %146 = load i64, ptr %10, align 8, !tbaa !57
  %147 = sub i64 0, %146
  %148 = sub i64 %147, 1
  %149 = load i64, ptr %9, align 8, !tbaa !57
  %150 = add i64 %148, %149
  %151 = load ptr, ptr %15, align 8, !tbaa !42
  %152 = getelementptr inbounds nuw %struct.quicklistIter, ptr %151, i32 0, i32 3
  store i64 %150, ptr %152, align 8, !tbaa !54
  br label %153

153:                                              ; preds = %145, %139
  %154 = load ptr, ptr %15, align 8, !tbaa !42
  store ptr %154, ptr %4, align 8
  store i32 1, ptr %12, align 4
  call void @llvm.lifetime.end.p0(i64 8, ptr %15) #10
  br label %155

155:                                              ; preds = %153, %113
  call void @llvm.lifetime.end.p0(i64 8, ptr %14) #10
  call void @llvm.lifetime.end.p0(i64 4, ptr %13) #10
  br label %156

156:                                              ; preds = %155, %34
  call void @llvm.lifetime.end.p0(i64 4, ptr %11) #10
  call void @llvm.lifetime.end.p0(i64 8, ptr %10) #10
  call void @llvm.lifetime.end.p0(i64 8, ptr %9) #10
  call void @llvm.lifetime.end.p0(i64 8, ptr %8) #10
  %157 = load ptr, ptr %4, align 8
  ret ptr %157
}