; Function Attrs: nounwind uwtable
define dso_local noalias noundef ptr @quicklistGetIteratorAtIdx(ptr noundef %0, i32 noundef %1, i64 noundef %2) local_unnamed_addr #1 {
  %4 = icmp sgt i64 %2, -1
  %not. = xor i1 %4, true
  %5 = sext i1 %not. to i64
  %6 = xor i64 %2, %5
  %7 = getelementptr inbounds nuw i8, ptr %0, i64 16
  %8 = load i64, ptr %7, align 8, !tbaa !5
  %.not = icmp ult i64 %6, %8
  br i1 %.not, label %9, label %.critedge

9:                                                ; preds = %3
  %10 = add i64 %8, -1
  %11 = lshr i64 %10, 1
  %.not56 = icmp ugt i64 %6, %11
  %12 = sub i64 %10, %6
  %.044.v = select i1 %.not56, i1 %not., i1 %4
  %.043 = select i1 %.not56, i64 %12, i64 %6
  %.in.idx = select i1 %.044.v, i64 0, i64 8
  %.in = getelementptr inbounds nuw i8, ptr %0, i64 %.in.idx
  %.04559 = load ptr, ptr %.in, align 8, !tbaa !16
  %.not5260 = icmp eq ptr %.04559, null
  br i1 %.not5260, label %.critedge, label %.lr.ph, !prof !45

.lr.ph:                                           ; preds = %9
  %.in53.idx = select i1 %.044.v, i64 8, i64 0
  br label %13

13:                                               ; preds = %.lr.ph, %20
  %.04562 = phi ptr [ %.04559, %.lr.ph ], [ %.045, %20 ]
  %.04661 = phi i64 [ 0, %.lr.ph ], [ %18, %20 ]
  %14 = getelementptr inbounds nuw i8, ptr %.04562, i64 32
  %15 = load i32, ptr %14, align 8
  %16 = and i32 %15, 65535
  %17 = zext nneg i32 %16 to i64
  %18 = add i64 %.04661, %17
  %19 = icmp ugt i64 %18, %.043
  br i1 %19, label %quicklistGetIterator.exit, label %20

20:                                               ; preds = %13
  %.in53 = getelementptr inbounds nuw i8, ptr %.04562, i64 %.in53.idx
  %.045 = load ptr, ptr %.in53, align 8, !tbaa !16
  %.not52 = icmp eq ptr %.045, null
  br i1 %.not52, label %.critedge, label %13, !prof !46, !llvm.loop !47

quicklistGetIterator.exit:                        ; preds = %13
  %21 = sub i64 %8, %18
  %spec.select = select i1 %.not56, i64 %21, i64 %.04661
  %22 = tail call noalias dereferenceable_or_null(40) ptr @zmalloc(i64 noundef 40) #22
  %23 = getelementptr inbounds nuw i8, ptr %22, i64 32
  store i32 %1, ptr %23, align 8, !tbaa !40
  store ptr %0, ptr %22, align 8, !tbaa !43
  %24 = getelementptr inbounds nuw i8, ptr %22, i64 16
  store ptr null, ptr %24, align 8, !tbaa !38
  %25 = getelementptr inbounds nuw i8, ptr %22, i64 8
  store ptr %.04562, ptr %25, align 8, !tbaa !41
  %26 = xor i64 %6, -1
  %27 = add i64 %spec.select, %26
  %28 = sub i64 %6, %spec.select
  %.sink = select i1 %4, i64 %28, i64 %27
  %29 = getelementptr inbounds nuw i8, ptr %22, i64 24
  store i64 %.sink, ptr %29, align 8, !tbaa !42
  br label %.critedge

.critedge:                                        ; preds = %20, %quicklistGetIterator.exit, %9, %3
  %.0 = phi ptr [ null, %3 ], [ null, %9 ], [ %22, %quicklistGetIterator.exit ], [ null, %20 ]
  ret ptr %.0
}